target datalayout = "e-m:e-p270:32:32-p271:32:32-p272:64:64-i64:64-i128:128-f80:128-n8:16:32:64-S128"
target triple = "x86_64-pc-linux-gnu"

%struct.AVFilterContext = type { ptr, ptr, ptr, ptr, ptr, i32, ptr, ptr, i32, ptr, ptr, i32, i32, ptr, ptr, ptr, ptr, i32, ptr, i32, i32 }
%struct.VIFContext = type { ptr, %struct.FFFrameSync, ptr, i32, i32, i32, float, [13 x ptr], ptr, ptr, ptr, [4 x double], [4 x double], [4 x double], i64 }
%struct.FFFrameSync = type { ptr, ptr, i32, %struct.AVRational, i64, ptr, ptr, i32, i32, i8, i8, ptr, i32, i32, i32, i32 }
%struct.AVRational = type { i32, i32 }
%struct.AVFilterLink = type { ptr, ptr, ptr, ptr, i32, i32, i32, i32, %struct.AVRational, i32, i32, i32, %struct.AVChannelLayout, %struct.AVRational, ptr, i32, %struct.AVFilterFormatsConfig, %struct.AVFilterFormatsConfig }
%struct.AVChannelLayout = type { i32, i32, %union.anon.1, ptr }
%union.anon.1 = type { i64 }
%struct.AVFilterFormatsConfig = type { ptr, ptr, ptr, ptr, ptr }

@.str.4 = private unnamed_addr constant [48 x i8] c"Width and height of input videos must be same.\0A\00", align 1

; Function Attrs: nounwind uwtable
define internal i32 @config_input_ref(ptr noundef %0) #0 {
  %2 = alloca i32, align 4
  %3 = alloca ptr, align 8
  %4 = alloca ptr, align 8
  %5 = alloca ptr, align 8
  %6 = alloca i32, align 4
  %7 = alloca i32, align 4
  %8 = alloca i32, align 4
  %9 = alloca i32, align 4
  store ptr %0, ptr %3, align 8, !tbaa !43
  call void @llvm.lifetime.start.p0(i64 8, ptr %4) #10
  %10 = load ptr, ptr %3, align 8, !tbaa !43
  %11 = getelementptr inbounds nuw %struct.AVFilterLink, ptr %10, i32 0, i32 2
  %12 = load ptr, ptr %11, align 8, !tbaa !45
  store ptr %12, ptr %4, align 8, !tbaa !4
  call void @llvm.lifetime.start.p0(i64 8, ptr %5) #10
  %13 = load ptr, ptr %4, align 8, !tbaa !4
  %14 = getelementptr inbounds nuw %struct.AVFilterContext, ptr %13, i32 0, i32 9
  %15 = load ptr, ptr %14, align 8, !tbaa !9
  store ptr %15, ptr %5, align 8, !tbaa !22
  %16 = load ptr, ptr %4, align 8, !tbaa !4
  %17 = getelementptr inbounds nuw %struct.AVFilterContext, ptr %16, i32 0, i32 4
  %18 = load ptr, ptr %17, align 8, !tbaa !52
  %19 = getelementptr inbounds ptr, ptr %18, i64 0
  %20 = load ptr, ptr %19, align 8, !tbaa !43
  %21 = getelementptr inbounds nuw %struct.AVFilterLink, ptr %20, i32 0, i32 6
  %22 = load i32, ptr %21, align 8, !tbaa !53
  %23 = load ptr, ptr %4, align 8, !tbaa !4
  %24 = getelementptr inbounds nuw %struct.AVFilterContext, ptr %23, i32 0, i32 4
  %25 = load ptr, ptr %24, align 8, !tbaa !52
  %26 = getelementptr inbounds ptr, ptr %25, i64 1
  %27 = load ptr, ptr %26, align 8, !tbaa !43
  %28 = getelementptr inbounds nuw %struct.AVFilterLink, ptr %27, i32 0, i32 6
  %29 = load i32, ptr %28, align 8, !tbaa !53
  %30 = icmp ne i32 %22, %29
  br i1 %30, label %47, label %31

31:                                               ; preds = %1
  %32 = load ptr, ptr %4, align 8, !tbaa !4
  %33 = getelementptr inbounds nuw %struct.AVFilterContext, ptr %32, i32 0, i32 4
  %34 = load ptr, ptr %33, align 8, !tbaa !52
  %35 = getelementptr inbounds ptr, ptr %34, i64 0
  %36 = load ptr, ptr %35, align 8, !tbaa !43
  %37 = getelementptr inbounds nuw %struct.AVFilterLink, ptr %36, i32 0, i32 7
  %38 = load i32, ptr %37, align 4, !tbaa !54
  %39 = load ptr, ptr %4, align 8, !tbaa !4
  %40 = getelementptr inbounds nuw %struct.AVFilterContext, ptr %39, i32 0, i32 4
  %41 = load ptr, ptr %40, align 8, !tbaa !52
  %42 = getelementptr inbounds ptr, ptr %41, i64 1
  %43 = load ptr, ptr %42, align 8, !tbaa !43
  %44 = getelementptr inbounds nuw %struct.AVFilterLink, ptr %43, i32 0, i32 7
  %45 = load i32, ptr %44, align 4, !tbaa !54
  %46 = icmp ne i32 %38, %45
  br i1 %46, label %47, label %49

47:                                               ; preds = %31, %1
  %48 = load ptr, ptr %4, align 8, !tbaa !4
  call void (ptr, i32, ptr, ...) @av_log(ptr noundef %48, i32 noundef 16, ptr noundef @.str.4)
  store i32 -22, ptr %2, align 4
  store i32 1, ptr %6, align 4
  br label %194

49:                                               ; preds = %31
  %50 = load ptr, ptr %3, align 8, !tbaa !43
  %51 = getelementptr inbounds nuw %struct.AVFilterLink, ptr %50, i32 0, i32 5
  %52 = load i32, ptr %51, align 4, !tbaa !55
  %53 = call ptr @av_pix_fmt_desc_get(i32 noundef %52)
  %54 = load ptr, ptr %5, align 8, !tbaa !22
  %55 = getelementptr inbounds nuw %struct.VIFContext, ptr %54, i32 0, i32 2
  store ptr %53, ptr %55, align 8, !tbaa !56
  %56 = load ptr, ptr %4, align 8, !tbaa !4
  %57 = getelementptr inbounds nuw %struct.AVFilterContext, ptr %56, i32 0, i32 4
  %58 = load ptr, ptr %57, align 8, !tbaa !52
  %59 = getelementptr inbounds ptr, ptr %58, i64 0
  %60 = load ptr, ptr %59, align 8, !tbaa !43
  %61 = getelementptr inbounds nuw %struct.AVFilterLink, ptr %60, i32 0, i32 6
  %62 = load i32, ptr %61, align 8, !tbaa !53
  %63 = load ptr, ptr %5, align 8, !tbaa !22
  %64 = getelementptr inbounds nuw %struct.VIFContext, ptr %63, i32 0, i32 3
  store i32 %62, ptr %64, align 8, !tbaa !57
  %65 = load ptr, ptr %4, align 8, !tbaa !4
  %66 = getelementptr inbounds nuw %struct.AVFilterContext, ptr %65, i32 0, i32 4
  %67 = load ptr, ptr %66, align 8, !tbaa !52
  %68 = getelementptr inbounds ptr, ptr %67, i64 0
  %69 = load ptr, ptr %68, align 8, !tbaa !43
  %70 = getelementptr inbounds nuw %struct.AVFilterLink, ptr %69, i32 0, i32 7
  %71 = load i32, ptr %70, align 4, !tbaa !54
  %72 = load ptr, ptr %5, align 8, !tbaa !22
  %73 = getelementptr inbounds nuw %struct.VIFContext, ptr %72, i32 0, i32 4
  store i32 %71, ptr %73, align 4, !tbaa !58
  %74 = load ptr, ptr %4, align 8, !tbaa !4
  %75 = call i32 @ff_filter_get_nb_threads(ptr noundef %74) #11
  %76 = load ptr, ptr %5, align 8, !tbaa !22
  %77 = getelementptr inbounds nuw %struct.VIFContext, ptr %76, i32 0, i32 5
  store i32 %75, ptr %77, align 8, !tbaa !40
  call void @llvm.lifetime.start.p0(i64 4, ptr %7) #10
  store i32 0, ptr %7, align 4, !tbaa !34
  br label %78

78:                                               ; preds = %93, %49
  %79 = load i32, ptr %7, align 4, !tbaa !34
  %80 = icmp slt i32 %79, 4
  br i1 %80, label %82, label %81

81:                                               ; preds = %78
  store i32 2, ptr %6, align 4
  call void @llvm.lifetime.end.p0(i64 4, ptr %7) #10
  br label %96

82:                                               ; preds = %78
  %83 = load ptr, ptr %5, align 8, !tbaa !22
  %84 = getelementptr inbounds nuw %struct.VIFContext, ptr %83, i32 0, i32 12
  %85 = load i32, ptr %7, align 4, !tbaa !34
  %86 = sext i32 %85 to i64
  %87 = getelementptr inbounds [4 x double], ptr %84, i64 0, i64 %86
  store double 0x7FEFFFFFFFFFFFFF, ptr %87, align 8, !tbaa !35
  %88 = load ptr, ptr %5, align 8, !tbaa !22
  %89 = getelementptr inbounds nuw %struct.VIFContext, ptr %88, i32 0, i32 13
  %90 = load i32, ptr %7, align 4, !tbaa !34
  %91 = sext i32 %90 to i64
  %92 = getelementptr inbounds [4 x double], ptr %89, i64 0, i64 %91
  store double 0xFFEFFFFFFFFFFFFF, ptr %92, align 8, !tbaa !35
  br label %93

93:                                               ; preds = %82
  %94 = load i32, ptr %7, align 4, !tbaa !34
  %95 = add nsw i32 %94, 1
  store i32 %95, ptr %7, align 4, !tbaa !34
  br label %78, !llvm.loop !59

96:                                               ; preds = %81
  call void @llvm.lifetime.start.p0(i64 4, ptr %8) #10
  store i32 0, ptr %8, align 4, !tbaa !34
  br label %97

97:                                               ; preds = %120, %96
  %98 = load i32, ptr %8, align 4, !tbaa !34
  %99 = icmp slt i32 %98, 13
  br i1 %99, label %101, label %100

100:                                              ; preds = %97
  store i32 5, ptr %6, align 4
  br label %123

101:                                              ; preds = %97
  %102 = load ptr, ptr %5, align 8, !tbaa !22
  %103 = getelementptr inbounds nuw %struct.VIFContext, ptr %102, i32 0, i32 3
  %104 = load i32, ptr %103, align 8, !tbaa !57
  %105 = sext i32 %104 to i64
  %106 = load ptr, ptr %5, align 8, !tbaa !22
  %107 = getelementptr inbounds nuw %struct.VIFContext, ptr %106, i32 0, i32 4
  %108 = load i32, ptr %107, align 4, !tbaa !58
  %109 = sext i32 %108 to i64
  %110 = mul i64 %109, 4
  %111 = call noalias ptr @av_calloc(i64 noundef %105, i64 noundef %110)
  %112 = load ptr, ptr %5, align 8, !tbaa !22
  %113 = getelementptr inbounds nuw %struct.VIFContext, ptr %112, i32 0, i32 7
  %114 = load i32, ptr %8, align 4, !tbaa !34
  %115 = sext i32 %114 to i64
  %116 = getelementptr inbounds [13 x ptr], ptr %113, i64 0, i64 %115
  store ptr %111, ptr %116, align 8, !tbaa !60
  %117 = icmp ne ptr %111, null
  br i1 %117, label %119, label %118

118:                                              ; preds = %101
  store i32 -12, ptr %2, align 4
  store i32 1, ptr %6, align 4
  br label %123

119:                                              ; preds = %101
  br label %120

120:                                              ; preds = %119
  %121 = load i32, ptr %8, align 4, !tbaa !34
  %122 = add nsw i32 %121, 1
  store i32 %122, ptr %8, align 4, !tbaa !34
  br label %97, !llvm.loop !61

123:                                              ; preds = %118, %100
  call void @llvm.lifetime.end.p0(i64 4, ptr %8) #10
  %124 = load i32, ptr %6, align 4
  switch i32 %124, label %194 [
    i32 5, label %125
  ]

125:                                              ; preds = %123
  %126 = load ptr, ptr %5, align 8, !tbaa !22
  %127 = getelementptr inbounds nuw %struct.VIFContext, ptr %126, i32 0, i32 3
  %128 = load i32, ptr %127, align 8, !tbaa !57
  %129 = sext i32 %128 to i64
  %130 = load ptr, ptr %5, align 8, !tbaa !22
  %131 = getelementptr inbounds nuw %struct.VIFContext, ptr %130, i32 0, i32 4
  %132 = load i32, ptr %131, align 4, !tbaa !58
  %133 = sext i32 %132 to i64
  %134 = mul i64 %133, 4
  %135 = call noalias ptr @av_calloc(i64 noundef %129, i64 noundef %134)
  %136 = load ptr, ptr %5, align 8, !tbaa !22
  %137 = getelementptr inbounds nuw %struct.VIFContext, ptr %136, i32 0, i32 9
  store ptr %135, ptr %137, align 8, !tbaa !62
  %138 = icmp ne ptr %135, null
  br i1 %138, label %140, label %139

139:                                              ; preds = %125
  store i32 -12, ptr %2, align 4
  store i32 1, ptr %6, align 4
  br label %194

140:                                              ; preds = %125
  %141 = load ptr, ptr %5, align 8, !tbaa !22
  %142 = getelementptr inbounds nuw %struct.VIFContext, ptr %141, i32 0, i32 3
  %143 = load i32, ptr %142, align 8, !tbaa !57
  %144 = sext i32 %143 to i64
  %145 = load ptr, ptr %5, align 8, !tbaa !22
  %146 = getelementptr inbounds nuw %struct.VIFContext, ptr %145, i32 0, i32 4
  %147 = load i32, ptr %146, align 4, !tbaa !58
  %148 = sext i32 %147 to i64
  %149 = mul i64 %148, 4
  %150 = call noalias ptr @av_calloc(i64 noundef %144, i64 noundef %149)
  %151 = load ptr, ptr %5, align 8, !tbaa !22
  %152 = getelementptr inbounds nuw %struct.VIFContext, ptr %151, i32 0, i32 10
  store ptr %150, ptr %152, align 8, !tbaa !63
  %153 = icmp ne ptr %150, null
  br i1 %153, label %155, label %154

154:                                              ; preds = %140
  store i32 -12, ptr %2, align 4
  store i32 1, ptr %6, align 4
  br label %194

155:                                              ; preds = %140
  %156 = load ptr, ptr %5, align 8, !tbaa !22
  %157 = getelementptr inbounds nuw %struct.VIFContext, ptr %156, i32 0, i32 5
  %158 = load i32, ptr %157, align 8, !tbaa !40
  %159 = sext i32 %158 to i64
  %160 = call noalias ptr @av_calloc(i64 noundef %159, i64 noundef 8)
  %161 = load ptr, ptr %5, align 8, !tbaa !22
  %162 = getelementptr inbounds nuw %struct.VIFContext, ptr %161, i32 0, i32 8
  store ptr %160, ptr %162, align 8, !tbaa !41
  %163 = icmp ne ptr %160, null
  br i1 %163, label %165, label %164

164:                                              ; preds = %155
  store i32 -12, ptr %2, align 4
  store i32 1, ptr %6, align 4
  br label %194

165:                                              ; preds = %155
  call void @llvm.lifetime.start.p0(i64 4, ptr %9) #10
  store i32 0, ptr %9, align 4, !tbaa !34
  br label %166

166:                                              ; preds = %188, %165
  %167 = load i32, ptr %9, align 4, !tbaa !34
  %168 = load ptr, ptr %5, align 8, !tbaa !22
  %169 = getelementptr inbounds nuw %struct.VIFContext, ptr %168, i32 0, i32 5
  %170 = load i32, ptr %169, align 8, !tbaa !40
  %171 = icmp slt i32 %167, %170
  br i1 %171, label %173, label %172

172:                                              ; preds = %166
  store i32 8, ptr %6, align 4
  br label %191

173:                                              ; preds = %166
  %174 = load ptr, ptr %5, align 8, !tbaa !22
  %175 = getelementptr inbounds nuw %struct.VIFContext, ptr %174, i32 0, i32 3
  %176 = load i32, ptr %175, align 8, !tbaa !57
  %177 = sext i32 %176 to i64
  %178 = call noalias ptr @av_calloc(i64 noundef %177, i64 noundef 4)
  %179 = load ptr, ptr %5, align 8, !tbaa !22
  %180 = getelementptr inbounds nuw %struct.VIFContext, ptr %179, i32 0, i32 8
  %181 = load ptr, ptr %180, align 8, !tbaa !41
  %182 = load i32, ptr %9, align 4, !tbaa !34
  %183 = sext i32 %182 to i64
  %184 = getelementptr inbounds ptr, ptr %181, i64 %183
  store ptr %178, ptr %184, align 8, !tbaa !60
  %185 = icmp ne ptr %178, null
  br i1 %185, label %187, label %186

186:                                              ; preds = %173
  store i32 -12, ptr %2, align 4
  store i32 1, ptr %6, align 4
  br label %191

187:                                              ; preds = %173
  br label %188

188:                                              ; preds = %187
  %189 = load i32, ptr %9, align 4, !tbaa !34
  %190 = add nsw i32 %189, 1
  store i32 %190, ptr %9, align 4, !tbaa !34
  br label %166, !llvm.loop !64

191:                                              ; preds = %186, %172
  call void @llvm.lifetime.end.p0(i64 4, ptr %9) #10
  %192 = load i32, ptr %6, align 4
  switch i32 %192, label %194 [
    i32 8, label %193
  ]

193:                                              ; preds = %191
  store i32 0, ptr %2, align 4
  store i32 1, ptr %6, align 4
  br label %194

194:                                              ; preds = %193, %191, %164, %154, %139, %123, %47
  call void @llvm.lifetime.end.p0(i64 8, ptr %5) #10
  call void @llvm.lifetime.end.p0(i64 8, ptr %4) #10
  %195 = load i32, ptr %2, align 4
  ret i32 %195
}