; Function Attrs: nounwind uwtable
define internal range(i32 -22, 1) i32 @config_input_ref(ptr noundef readonly captures(none) %0) #0 {
  %2 = getelementptr inbounds nuw i8, ptr %0, i64 16
  %3 = load ptr, ptr %2, align 8, !tbaa !39
  %4 = getelementptr inbounds nuw i8, ptr %3, i64 72
  %5 = load ptr, ptr %4, align 8, !tbaa !4
  %6 = getelementptr inbounds nuw i8, ptr %3, i64 32
  %7 = load ptr, ptr %6, align 8, !tbaa !46
  %8 = load ptr, ptr %7, align 8, !tbaa !47
  %9 = getelementptr inbounds nuw i8, ptr %8, i64 40
  %10 = load i32, ptr %9, align 8, !tbaa !49
  %11 = getelementptr inbounds nuw i8, ptr %7, i64 8
  %12 = load ptr, ptr %11, align 8, !tbaa !47
  %13 = getelementptr inbounds nuw i8, ptr %12, i64 40
  %14 = load i32, ptr %13, align 8, !tbaa !49
  %.not = icmp eq i32 %10, %14
  br i1 %.not, label %15, label %20

15:                                               ; preds = %1
  %16 = getelementptr inbounds nuw i8, ptr %8, i64 44
  %17 = load i32, ptr %16, align 4, !tbaa !50
  %18 = getelementptr inbounds nuw i8, ptr %12, i64 44
  %19 = load i32, ptr %18, align 4, !tbaa !50
  %.not49 = icmp eq i32 %17, %19
  br i1 %.not49, label %21, label %20

20:                                               ; preds = %15, %1
  tail call void (ptr, i32, ptr, ...) @av_log(ptr noundef nonnull %3, i32 noundef 16, ptr noundef nonnull @.str.4) #12
  br label %.loopexit

21:                                               ; preds = %15
  %22 = getelementptr inbounds nuw i8, ptr %0, i64 36
  %23 = load i32, ptr %22, align 4, !tbaa !51
  %24 = tail call ptr @av_pix_fmt_desc_get(i32 noundef %23) #12
  %25 = getelementptr inbounds nuw i8, ptr %5, i64 104
  store ptr %24, ptr %25, align 8, !tbaa !52
  %26 = load ptr, ptr %6, align 8, !tbaa !46
  %27 = load ptr, ptr %26, align 8, !tbaa !47
  %28 = getelementptr inbounds nuw i8, ptr %27, i64 40
  %29 = load i32, ptr %28, align 8, !tbaa !49
  %30 = getelementptr inbounds nuw i8, ptr %5, i64 112
  store i32 %29, ptr %30, align 8, !tbaa !53
  %31 = getelementptr inbounds nuw i8, ptr %27, i64 44
  %32 = load i32, ptr %31, align 4, !tbaa !50
  %33 = getelementptr inbounds nuw i8, ptr %5, i64 116
  store i32 %32, ptr %33, align 4, !tbaa !54
  %34 = tail call i32 @ff_filter_get_nb_threads(ptr noundef nonnull %3) #13
  %35 = getelementptr inbounds nuw i8, ptr %5, i64 120
  store i32 %34, ptr %35, align 8, !tbaa !35
  %36 = getelementptr inbounds nuw i8, ptr %5, i64 288
  %37 = getelementptr inbounds nuw i8, ptr %5, i64 320
  br label %39

.preheader56:                                     ; preds = %39
  %38 = getelementptr inbounds nuw i8, ptr %5, i64 128
  br label %43

39:                                               ; preds = %21, %39
  %indvars.iv = phi i64 [ 0, %21 ], [ %indvars.iv.next, %39 ]
  %40 = getelementptr inbounds nuw [4 x double], ptr %36, i64 0, i64 %indvars.iv
  store double 0x7FEFFFFFFFFFFFFF, ptr %40, align 8, !tbaa !31
  %41 = getelementptr inbounds nuw [4 x double], ptr %37, i64 0, i64 %indvars.iv
  store double 0xFFEFFFFFFFFFFFFF, ptr %41, align 8, !tbaa !31
  %indvars.iv.next = add nuw nsw i64 %indvars.iv, 1
  %exitcond.not = icmp eq i64 %indvars.iv.next, 4
  br i1 %exitcond.not, label %.preheader56, label %39, !llvm.loop !55

42:                                               ; preds = %43
  %indvars.iv.next67 = add nuw nsw i64 %indvars.iv66, 1
  %exitcond69 = icmp eq i64 %indvars.iv.next67, 13
  br i1 %exitcond69, label %.critedge, label %43, !llvm.loop !56

43:                                               ; preds = %.preheader56, %42
  %indvars.iv66 = phi i64 [ 0, %.preheader56 ], [ %indvars.iv.next67, %42 ]
  %44 = load i32, ptr %30, align 8, !tbaa !53
  %45 = sext i32 %44 to i64
  %46 = load i32, ptr %33, align 4, !tbaa !54
  %47 = sext i32 %46 to i64
  %48 = shl nsw i64 %47, 2
  %49 = tail call noalias ptr @av_calloc(i64 noundef %45, i64 noundef %48) #12
  %50 = getelementptr inbounds nuw [13 x ptr], ptr %38, i64 0, i64 %indvars.iv66
  store ptr %49, ptr %50, align 8, !tbaa !57
  %.not50 = icmp eq ptr %49, null
  br i1 %.not50, label %.loopexit, label %42

.critedge:                                        ; preds = %42
  %51 = load i32, ptr %30, align 8, !tbaa !53
  %52 = sext i32 %51 to i64
  %53 = load i32, ptr %33, align 4, !tbaa !54
  %54 = sext i32 %53 to i64
  %55 = shl nsw i64 %54, 2
  %56 = tail call noalias ptr @av_calloc(i64 noundef %52, i64 noundef %55) #12
  %57 = getelementptr inbounds nuw i8, ptr %5, i64 240
  store ptr %56, ptr %57, align 8, !tbaa !58
  %.not51 = icmp eq ptr %56, null
  br i1 %.not51, label %.loopexit, label %58

58:                                               ; preds = %.critedge
  %59 = load i32, ptr %30, align 8, !tbaa !53
  %60 = sext i32 %59 to i64
  %61 = load i32, ptr %33, align 4, !tbaa !54
  %62 = sext i32 %61 to i64
  %63 = shl nsw i64 %62, 2
  %64 = tail call noalias ptr @av_calloc(i64 noundef %60, i64 noundef %63) #12
  %65 = getelementptr inbounds nuw i8, ptr %5, i64 248
  store ptr %64, ptr %65, align 8, !tbaa !59
  %.not52 = icmp eq ptr %64, null
  br i1 %.not52, label %.loopexit, label %66

66:                                               ; preds = %58
  %67 = load i32, ptr %35, align 8, !tbaa !35
  %68 = sext i32 %67 to i64
  %69 = tail call noalias ptr @av_calloc(i64 noundef %68, i64 noundef 8) #12
  %70 = getelementptr inbounds nuw i8, ptr %5, i64 232
  store ptr %69, ptr %70, align 8, !tbaa !37
  %.not53 = icmp eq ptr %69, null
  br i1 %.not53, label %.loopexit, label %.preheader

.preheader:                                       ; preds = %66
  %71 = load i32, ptr %35, align 8, !tbaa !35
  %.not5560 = icmp sgt i32 %71, 0
  br i1 %.not5560, label %.lr.ph, label %.loopexit

72:                                               ; preds = %.lr.ph
  %indvars.iv.next71 = add nuw nsw i64 %indvars.iv70, 1
  %73 = load i32, ptr %35, align 8, !tbaa !35
  %74 = sext i32 %73 to i64
  %.not55 = icmp slt i64 %indvars.iv.next71, %74
  br i1 %.not55, label %.lr.ph, label %.loopexit, !llvm.loop !60

.lr.ph:                                           ; preds = %.preheader, %72
  %indvars.iv70 = phi i64 [ %indvars.iv.next71, %72 ], [ 0, %.preheader ]
  %75 = load i32, ptr %30, align 8, !tbaa !53
  %76 = sext i32 %75 to i64
  %77 = tail call noalias ptr @av_calloc(i64 noundef %76, i64 noundef 4) #12
  %78 = load ptr, ptr %70, align 8, !tbaa !37
  %79 = getelementptr inbounds nuw ptr, ptr %78, i64 %indvars.iv70
  store ptr %77, ptr %79, align 8, !tbaa !57
  %.not54 = icmp eq ptr %77, null
  br i1 %.not54, label %.loopexit, label %72

.loopexit:                                        ; preds = %43, %.lr.ph, %72, %.preheader, %66, %58, %.critedge, %20
  %.047 = phi i32 [ -22, %20 ], [ -12, %.critedge ], [ -12, %58 ], [ -12, %66 ], [ 0, %.preheader ], [ -12, %.lr.ph ], [ 0, %72 ], [ -12, %43 ]
  ret i32 %.047
}